target datalayout = "e-m:e-p270:32:32-p271:32:32-p272:64:64-i64:64-i128:128-f80:128-n8:16:32:64-S128"
target triple = "x86_64-pc-linux-gnu"

%struct.php_dom_xpath_callbacks = type { ptr, ptr, ptr }

; Function Attrs: nounwind uwtable
define void @php_dom_xpath_callbacks_clean_node_list(ptr noundef %0) #0 {
  %2 = alloca ptr, align 8
  store ptr %0, ptr %2, align 8
  %3 = load ptr, ptr %2, align 8
  %4 = getelementptr inbounds %struct.php_dom_xpath_callbacks, ptr %3, i32 0, i32 2
  %5 = load ptr, ptr %4, align 8
  %6 = icmp ne ptr %5, null
  br i1 %6, label %7, label %18

7:                                                ; preds = %1
  %8 = load ptr, ptr %2, align 8
  %9 = getelementptr inbounds %struct.php_dom_xpath_callbacks, ptr %8, i32 0, i32 2
  %10 = load ptr, ptr %9, align 8
  call void @zend_hash_destroy(ptr noundef %10)
  br label %11

11:                                               ; preds = %7
  %12 = load ptr, ptr %2, align 8
  %13 = getelementptr inbounds %struct.php_dom_xpath_callbacks, ptr %12, i32 0, i32 2
  %14 = load ptr, ptr %13, align 8
  call void @_efree_56(ptr noundef %14)
  br label %15

15:                                               ; preds = %11
  %16 = load ptr, ptr %2, align 8
  %17 = getelementptr inbounds %struct.php_dom_xpath_callbacks, ptr %16, i32 0, i32 2
  store ptr null, ptr %17, align 8
  br label %18

18:                                               ; preds = %15, %1
  ret void
}