; Function Attrs: nounwind uwtable
define void @php_dom_xpath_callbacks_clean_node_list(ptr nocapture noundef %0) local_unnamed_addr #0 {
  %2 = getelementptr inbounds i8, ptr %0, i64 16
  %3 = load ptr, ptr %2, align 8
  %.not = icmp eq ptr %3, null
  br i1 %.not, label %6, label %4

4:                                                ; preds = %1
  tail call void @zend_hash_destroy(ptr noundef nonnull %3) #9
  %5 = load ptr, ptr %2, align 8
  tail call void @_efree_56(ptr noundef %5) #9
  store ptr null, ptr %2, align 8
  br label %6

6:                                                ; preds = %4, %1
  ret void
}